; Function Attrs: nounwind uwtable
define internal void @_sinfo_list_delete(ptr noundef %0) #5 {
  %2 = alloca ptr, align 8
  call void @llvm.lifetime.start.p0(i64 8, ptr nonnull %2) #13
  store ptr %0, ptr %2, align 8
  %3 = getelementptr inbounds nuw i8, ptr %0, i64 272
  %4 = load ptr, ptr %3, align 8
  tail call void @hostlist_destroy(ptr noundef %4) #13
  %5 = getelementptr inbounds nuw i8, ptr %0, i64 264
  %6 = load ptr, ptr %5, align 8
  tail call void @hostlist_destroy(ptr noundef %6) #13
  %7 = getelementptr inbounds nuw i8, ptr %0, i64 256
  %8 = load ptr, ptr %7, align 8
  tail call void @hostlist_destroy(ptr noundef %8) #13
  call void @slurm_xfree(ptr noundef nonnull %2) #13
  call void @llvm.lifetime.end.p0(i64 8, ptr nonnull %2) #13
  ret void
}